; Function Attrs: mustprogress nounwind uwtable
define dso_local noundef zeroext i1 @_ZN4llvm5MachO13PackedVersion7parse32ENS_9StringRefE(ptr nocapture noundef nonnull align 4 dereferenceable(4) %0, ptr %1, i64 %2) local_unnamed_addr #0 align 2 {
  %4 = alloca %"class.llvm::SmallVector", align 8
  %5 = alloca i64, align 8
  store i32 0, ptr %0, align 4
  %6 = icmp eq i64 %2, 0
  br i1 %6, label %_ZN4llvm11SmallVectorINS_9StringRefELj3EED2Ev.exit, label %7

7:                                                ; preds = %3
  %8 = getelementptr inbounds i8, ptr %4, i64 16
  call void @_ZN4llvm15SmallVectorBaseIjEC2EPvm(ptr noundef nonnull align 8 dereferenceable(16) %4, ptr noundef nonnull %8, i64 noundef 3) #7
  call void @_ZN4llvm11SplitStringENS_9StringRefERNS_15SmallVectorImplIS0_EES0_(ptr %1, i64 %2, ptr noundef nonnull align 8 dereferenceable(16) %4, ptr nonnull @.str, i64 1) #7
  %9 = call noundef i64 @_ZNK4llvm15SmallVectorBaseIjE4sizeEv(ptr noundef nonnull align 8 dereferenceable(16) %4) #7
  %10 = icmp ugt i64 %9, 3
  br i1 %10, label %.loopexit, label %11

11:                                               ; preds = %7
  %12 = call noundef zeroext i1 @_ZNK4llvm15SmallVectorBaseIjE5emptyEv(ptr noundef nonnull align 8 dereferenceable(16) %4) #7
  br i1 %12, label %.loopexit, label %13

13:                                               ; preds = %11
  %14 = load ptr, ptr %4, align 8
  %.sroa.05.0.copyload = load ptr, ptr %14, align 8
  %.sroa.26.0..sroa_idx = getelementptr inbounds i8, ptr %14, i64 8
  %.sroa.26.0.copyload = load i64, ptr %.sroa.26.0..sroa_idx, align 8
  %15 = call noundef zeroext i1 @_ZN4llvm20getAsUnsignedIntegerENS_9StringRefEjRy(ptr %.sroa.05.0.copyload, i64 %.sroa.26.0.copyload, i32 noundef 10, ptr noundef nonnull align 8 dereferenceable(8) %5) #7
  br i1 %15, label %.loopexit, label %16

16:                                               ; preds = %13
  %17 = load i64, ptr %5, align 8
  %18 = icmp ugt i64 %17, 65535
  br i1 %18, label %.loopexit, label %19

19:                                               ; preds = %16
  %.tr = trunc nuw i64 %17 to i32
  %20 = shl nuw i32 %.tr, 16
  store i32 %20, ptr %0, align 4
  %21 = call noundef i64 @_ZNK4llvm15SmallVectorBaseIjE4sizeEv(ptr noundef nonnull align 8 dereferenceable(16) %4) #7
  %22 = icmp ugt i64 %21, 1
  br i1 %22, label %.lr.ph, label %.loopexit

.lr.ph:                                           ; preds = %19, %30
  %23 = phi i64 [ %38, %30 ], [ 1, %19 ]
  %.01019 = phi i32 [ %37, %30 ], [ 8, %19 ]
  %.01118 = phi i32 [ %36, %30 ], [ 1, %19 ]
  %24 = load ptr, ptr %4, align 8
  %25 = getelementptr inbounds %"class.llvm::StringRef", ptr %24, i64 %23
  %.sroa.0.0.copyload = load ptr, ptr %25, align 8
  %.sroa.2.0..sroa_idx = getelementptr inbounds i8, ptr %25, i64 8
  %.sroa.2.0.copyload = load i64, ptr %.sroa.2.0..sroa_idx, align 8
  %26 = call noundef zeroext i1 @_ZN4llvm20getAsUnsignedIntegerENS_9StringRefEjRy(ptr %.sroa.0.0.copyload, i64 %.sroa.2.0.copyload, i32 noundef 10, ptr noundef nonnull align 8 dereferenceable(8) %5) #7
  br i1 %26, label %.loopexit, label %27

27:                                               ; preds = %.lr.ph
  %28 = load i64, ptr %5, align 8
  %29 = icmp ugt i64 %28, 255
  br i1 %29, label %.loopexit, label %30

30:                                               ; preds = %27
  %31 = zext nneg i32 %.01019 to i64
  %32 = shl i64 %28, %31
  %33 = load i32, ptr %0, align 4
  %34 = trunc i64 %32 to i32
  %35 = or i32 %33, %34
  store i32 %35, ptr %0, align 4
  %36 = add i32 %.01118, 1
  %37 = add i32 %.01019, -8
  %38 = zext i32 %36 to i64
  %39 = call noundef i64 @_ZNK4llvm15SmallVectorBaseIjE4sizeEv(ptr noundef nonnull align 8 dereferenceable(16) %4) #7
  %40 = icmp ugt i64 %39, %38
  br i1 %40, label %.lr.ph, label %.loopexit, !llvm.loop !4

.loopexit:                                        ; preds = %.lr.ph, %27, %30, %19, %16, %13, %7, %11
  %.1 = phi i1 [ false, %11 ], [ false, %7 ], [ false, %13 ], [ false, %16 ], [ true, %19 ], [ false, %.lr.ph ], [ false, %27 ], [ true, %30 ]
  %41 = call noundef i64 @_ZNK4llvm15SmallVectorBaseIjE4sizeEv(ptr noundef nonnull align 8 dereferenceable(16) %4) #7
  %42 = load ptr, ptr %4, align 8
  %43 = icmp eq ptr %42, %8
  br i1 %43, label %_ZN4llvm11SmallVectorINS_9StringRefELj3EED2Ev.exit, label %44

44:                                               ; preds = %.loopexit
  call void @free(ptr noundef %42) #7
  br label %_ZN4llvm11SmallVectorINS_9StringRefELj3EED2Ev.exit

_ZN4llvm11SmallVectorINS_9StringRefELj3EED2Ev.exit: ; preds = %44, %.loopexit, %3
  %.0 = phi i1 [ false, %3 ], [ %.1, %.loopexit ], [ %.1, %44 ]
  ret i1 %.0
}